target datalayout = "e-m:e-p270:32:32-p271:32:32-p272:64:64-i64:64-i128:128-f80:128-n8:16:32:64-S128"
target triple = "x86_64-pc-linux-gnu"

%"class.clang::CodeGen::CodeGenTypes" = type { ptr, ptr, ptr, ptr, %"class.llvm::DenseMap", %"class.llvm::DenseMap.0", %"class.llvm::DenseMap.3", %"class.llvm::FoldingSet", %"class.llvm::SmallPtrSet", i8, i8, [6 x i8], %"class.llvm::DenseMap.6", %"class.llvm::DenseMap.6" }
%"class.llvm::DenseMap" = type <{ ptr, i32, i32, i32, [4 x i8] }>
%"class.llvm::DenseMap.0" = type <{ ptr, i32, i32, i32, [4 x i8] }>
%"class.llvm::DenseMap.3" = type <{ ptr, i32, i32, i32, [4 x i8] }>
%"class.llvm::FoldingSet" = type { %"class.llvm::FoldingSetImpl" }
%"class.llvm::FoldingSetImpl" = type { %"class.llvm::FoldingSetBase" }
%"class.llvm::FoldingSetBase" = type { ptr, i32, i32 }
%"class.llvm::SmallPtrSet" = type { %"class.llvm::SmallPtrSetImpl.base", [4 x ptr] }
%"class.llvm::SmallPtrSetImpl.base" = type { %"class.llvm::SmallPtrSetImplBase.base" }
%"class.llvm::SmallPtrSetImplBase.base" = type <{ ptr, ptr, i32, i32, i32 }>
%"class.llvm::DenseMap.6" = type <{ ptr, i32, i32, i32, [4 x i8] }>
%"class.std::__cxx11::basic_string" = type { %"struct.std::__cxx11::basic_string<char>::_Alloc_hider", i64, %union.anon.17 }
%"struct.std::__cxx11::basic_string<char>::_Alloc_hider" = type { ptr }
%union.anon.17 = type { i64, [8 x i8] }
%"class.llvm::StringMapImpl" = type { ptr, i32, i32, i32, i32 }
%"class.llvm::SmallVectorBase" = type { ptr, i32, i32 }
%"class.clang::QualType" = type { %"class.llvm::PointerIntPair.272" }
%"class.llvm::PointerIntPair.272" = type { %"struct.llvm::detail::PunnedPointer.273" }
%"struct.llvm::detail::PunnedPointer.273" = type { [8 x i8] }
%"class.llvm::SmallVectorBase.740" = type { ptr, i64, i64 }
%"class.clang::CharUnits" = type { i64 }
%"class.llvm::TypeSize" = type { %"class.llvm::details::FixedOrScalableQuantity.base", [7 x i8] }
%"class.llvm::details::FixedOrScalableQuantity.base" = type <{ i64, i8 }>
%"struct.llvm::Align" = type { i8 }
%"class.llvm::DataLayout" = type { i8, i32, i32, i32, %"struct.llvm::MaybeAlign", %"struct.llvm::MaybeAlign", i32, i32, %"class.llvm::SmallVector.736", %"class.llvm::SmallVector.742", %"class.llvm::SmallVector.747", %"class.llvm::SmallVector.749", %"class.llvm::SmallVector.751", %"class.std::__cxx11::basic_string", %"struct.llvm::Align", %"struct.llvm::Align", ptr, %"class.llvm::SmallVector.756" }
%"struct.llvm::MaybeAlign" = type { %"class.std::optional" }
%"class.std::optional" = type { %"struct.std::_Optional_base" }
%"struct.std::_Optional_base" = type { %"struct.std::_Optional_payload" }
%"struct.std::_Optional_payload" = type { %"struct.std::_Optional_payload_base" }
%"struct.std::_Optional_payload_base" = type { %"union.std::_Optional_payload_base<llvm::Align>::_Storage", i8 }
%"union.std::_Optional_payload_base<llvm::Align>::_Storage" = type { %"struct.std::_Optional_payload_base<llvm::Align>::_Empty_byte" }
%"struct.std::_Optional_payload_base<llvm::Align>::_Empty_byte" = type { i8 }
%"class.llvm::SmallVector.736" = type { %"class.llvm::SmallVectorImpl.737", %"struct.llvm::SmallVectorStorage.741" }
%"class.llvm::SmallVectorImpl.737" = type { %"class.llvm::SmallVectorTemplateBase.738" }
%"class.llvm::SmallVectorTemplateBase.738" = type { %"class.llvm::SmallVectorTemplateCommon.739" }
%"class.llvm::SmallVectorTemplateCommon.739" = type { %"class.llvm::SmallVectorBase.740" }
%"struct.llvm::SmallVectorStorage.741" = type { [8 x i8] }
%"class.llvm::SmallVector.742" = type { %"class.llvm::SmallVectorImpl.743", %"struct.llvm::SmallVectorStorage.746" }
%"class.llvm::SmallVectorImpl.743" = type { %"class.llvm::SmallVectorTemplateBase.744" }
%"class.llvm::SmallVectorTemplateBase.744" = type { %"class.llvm::SmallVectorTemplateCommon.745" }
%"class.llvm::SmallVectorTemplateCommon.745" = type { %"class.llvm::SmallVectorBase" }
%"struct.llvm::SmallVectorStorage.746" = type { [48 x i8] }
%"class.llvm::SmallVector.747" = type { %"class.llvm::SmallVectorImpl.743", %"struct.llvm::SmallVectorStorage.748" }
%"struct.llvm::SmallVectorStorage.748" = type { [32 x i8] }
%"class.llvm::SmallVector.749" = type { %"class.llvm::SmallVectorImpl.743", %"struct.llvm::SmallVectorStorage.750" }
%"struct.llvm::SmallVectorStorage.750" = type { [80 x i8] }
%"class.llvm::SmallVector.751" = type { %"class.llvm::SmallVectorImpl.752", %"struct.llvm::SmallVectorStorage.755" }
%"class.llvm::SmallVectorImpl.752" = type { %"class.llvm::SmallVectorTemplateBase.753" }
%"class.llvm::SmallVectorTemplateBase.753" = type { %"class.llvm::SmallVectorTemplateCommon.754" }
%"class.llvm::SmallVectorTemplateCommon.754" = type { %"class.llvm::SmallVectorBase" }
%"struct.llvm::SmallVectorStorage.755" = type { [128 x i8] }
%"class.llvm::SmallVector.756" = type { %"class.llvm::SmallVectorImpl.757", %"struct.llvm::SmallVectorStorage.760" }
%"class.llvm::SmallVectorImpl.757" = type { %"class.llvm::SmallVectorTemplateBase.758" }
%"class.llvm::SmallVectorTemplateBase.758" = type { %"class.llvm::SmallVectorTemplateCommon.759" }
%"class.llvm::SmallVectorTemplateCommon.759" = type { %"class.llvm::SmallVectorBase" }
%"struct.llvm::SmallVectorStorage.760" = type { [32 x i8] }
%"class.llvm::Module" = type <{ ptr, %"class.llvm::SymbolTableList", %"class.llvm::SymbolTableList.676", %"class.llvm::SymbolTableList.685", %"class.llvm::SymbolTableList.694", %"class.llvm::iplist", %"class.std::__cxx11::basic_string", %"class.std::unique_ptr.710", %"class.llvm::StringMap.718", %"class.std::unique_ptr.719", %"class.std::unique_ptr.727", %"class.std::__cxx11::basic_string", %"class.std::__cxx11::basic_string", %"class.std::__cxx11::basic_string", %"class.llvm::StringMap.735", %"class.llvm::DataLayout", %"class.llvm::StringMap.761", %"class.llvm::DenseMap.762", ptr, i8, [7 x i8] }>
%"class.llvm::SymbolTableList" = type { %"class.llvm::iplist_impl" }
%"class.llvm::iplist_impl" = type { %"class.llvm::simple_ilist" }
%"class.llvm::simple_ilist" = type { %"class.llvm::ilist_sentinel" }
%"class.llvm::ilist_sentinel" = type { %"class.llvm::ilist_node_impl" }
%"class.llvm::ilist_node_impl" = type { %"class.llvm::ilist_node_base" }
%"class.llvm::ilist_node_base" = type { %"class.llvm::ilist_detail::node_base_prevnext" }
%"class.llvm::ilist_detail::node_base_prevnext" = type { ptr, ptr }
%"class.llvm::SymbolTableList.676" = type { %"class.llvm::iplist_impl.677" }
%"class.llvm::iplist_impl.677" = type { %"class.llvm::simple_ilist.680" }
%"class.llvm::simple_ilist.680" = type { %"class.llvm::ilist_sentinel.682" }
%"class.llvm::ilist_sentinel.682" = type { %"class.llvm::ilist_node_impl.683" }
%"class.llvm::ilist_node_impl.683" = type { %"class.llvm::ilist_node_base" }
%"class.llvm::SymbolTableList.685" = type { %"class.llvm::iplist_impl.686" }
%"class.llvm::iplist_impl.686" = type { %"class.llvm::simple_ilist.689" }
%"class.llvm::simple_ilist.689" = type { %"class.llvm::ilist_sentinel.691" }
%"class.llvm::ilist_sentinel.691" = type { %"class.llvm::ilist_node_impl.692" }
%"class.llvm::ilist_node_impl.692" = type { %"class.llvm::ilist_node_base" }
%"class.llvm::SymbolTableList.694" = type { %"class.llvm::iplist_impl.695" }
%"class.llvm::iplist_impl.695" = type { %"class.llvm::simple_ilist.698" }
%"class.llvm::simple_ilist.698" = type { %"class.llvm::ilist_sentinel.700" }
%"class.llvm::ilist_sentinel.700" = type { %"class.llvm::ilist_node_impl.701" }
%"class.llvm::ilist_node_impl.701" = type { %"class.llvm::ilist_node_base" }
%"class.llvm::iplist" = type { %"class.llvm::iplist_impl.703" }
%"class.llvm::iplist_impl.703" = type { %"class.llvm::simple_ilist.705" }
%"class.llvm::simple_ilist.705" = type { %"class.llvm::ilist_sentinel.707" }
%"class.llvm::ilist_sentinel.707" = type { %"class.llvm::ilist_node_impl.708" }
%"class.llvm::ilist_node_impl.708" = type { %"class.llvm::ilist_node_base" }
%"class.std::unique_ptr.710" = type { %"struct.std::__uniq_ptr_data.711" }
%"struct.std::__uniq_ptr_data.711" = type { %"class.std::__uniq_ptr_impl.712" }
%"class.std::__uniq_ptr_impl.712" = type { %"class.std::tuple.713" }
%"class.std::tuple.713" = type { %"struct.std::_Tuple_impl.714" }
%"struct.std::_Tuple_impl.714" = type { %"struct.std::_Head_base.717" }
%"struct.std::_Head_base.717" = type { ptr }
%"class.llvm::StringMap.718" = type { %"class.llvm::StringMapImpl" }
%"class.std::unique_ptr.719" = type { %"struct.std::__uniq_ptr_data.720" }
%"struct.std::__uniq_ptr_data.720" = type { %"class.std::__uniq_ptr_impl.721" }
%"class.std::__uniq_ptr_impl.721" = type { %"class.std::tuple.722" }
%"class.std::tuple.722" = type { %"struct.std::_Tuple_impl.723" }
%"struct.std::_Tuple_impl.723" = type { %"struct.std::_Head_base.726" }
%"struct.std::_Head_base.726" = type { ptr }
%"class.std::unique_ptr.727" = type { %"struct.std::__uniq_ptr_data.728" }
%"struct.std::__uniq_ptr_data.728" = type { %"class.std::__uniq_ptr_impl.729" }
%"class.std::__uniq_ptr_impl.729" = type { %"class.std::tuple.730" }
%"class.std::tuple.730" = type { %"struct.std::_Tuple_impl.731" }
%"struct.std::_Tuple_impl.731" = type { %"struct.std::_Head_base.734" }
%"struct.std::_Head_base.734" = type { ptr }
%"class.llvm::StringMap.735" = type { %"class.llvm::StringMapImpl" }
%"class.llvm::StringMap.761" = type { %"class.llvm::StringMapImpl" }
%"class.llvm::DenseMap.762" = type <{ ptr, i32, i32, i32, [4 x i8] }>
%"class.llvm::details::FixedOrScalableQuantity" = type <{ i64, i8, [7 x i8] }>

; Function Attrs: mustprogress nounwind uwtable
define linkonce_odr hidden void @_ZN4llvm7details23FixedOrScalableQuantityINS_8TypeSizeEmEC2Emb(ptr noundef nonnull align 8 dereferenceable(9) %0, i64 noundef %1, i1 noundef zeroext %2) unnamed_addr #0 comdat align 2 {
  %4 = alloca ptr, align 8
  %5 = alloca i64, align 8
  %6 = alloca i8, align 1
  store ptr %0, ptr %4, align 8
  store i64 %1, ptr %5, align 8
  %7 = zext i1 %2 to i8
  store i8 %7, ptr %6, align 1
  %8 = load ptr, ptr %4, align 8
  %9 = getelementptr inbounds nuw %"class.llvm::details::FixedOrScalableQuantity", ptr %8, i32 0, i32 0
  %10 = load i64, ptr %5, align 8
  store i64 %10, ptr %9, align 8
  %11 = getelementptr inbounds nuw %"class.llvm::details::FixedOrScalableQuantity", ptr %8, i32 0, i32 1
  %12 = load i8, ptr %6, align 1
  %13 = trunc i8 %12 to i1
  %14 = zext i1 %13 to i8
  store i8 %14, ptr %11, align 8
  ret void
}

; Function Attrs: mustprogress nounwind uwtable
define linkonce_odr hidden noundef i64 @_ZN4llvm15alignToPowerOf2ImimEET1_T_T0_(i64 noundef %0, i32 noundef %1) #0 comdat {
  %3 = alloca i64, align 8
  %4 = alloca i32, align 4
  %5 = alloca i64, align 8
  store i64 %0, ptr %3, align 8
  store i32 %1, ptr %4, align 4
  %6 = load i32, ptr %4, align 4
  %7 = sext i32 %6 to i64
  %8 = sub i64 0, %7
  store i64 %8, ptr %5, align 8
  %9 = load i64, ptr %3, align 8
  %10 = load i32, ptr %4, align 4
  %11 = sub nsw i32 %10, 1
  %12 = sext i32 %11 to i64
  %13 = add i64 %9, %12
  %14 = load i64, ptr %5, align 8
  %15 = and i64 %13, %14
  ret i64 %15
}

; Function Attrs: mustprogress nounwind uwtable
define linkonce_odr hidden void @_ZN4llvm8TypeSizeC2Emb(ptr noundef nonnull align 8 dereferenceable(9) %0, i64 noundef %1, i1 noundef zeroext %2) unnamed_addr #0 comdat align 2 {
  %4 = alloca ptr, align 8
  %5 = alloca i64, align 8
  %6 = alloca i8, align 1
  store ptr %0, ptr %4, align 8
  store i64 %1, ptr %5, align 8
  %7 = zext i1 %2 to i8
  store i8 %7, ptr %6, align 1
  %8 = load ptr, ptr %4, align 8
  %9 = load i64, ptr %5, align 8
  %10 = load i8, ptr %6, align 1
  %11 = trunc i8 %10 to i1
  call void @_ZN4llvm7details23FixedOrScalableQuantityINS_8TypeSizeEmEC2Emb(ptr noundef nonnull align 8 dereferenceable(9) %8, i64 noundef %9, i1 noundef zeroext %11)
  ret void
}

; Function Attrs: mustprogress nounwind uwtable
define linkonce_odr hidden noundef zeroext i1 @_ZNK4llvm7details23FixedOrScalableQuantityINS_8TypeSizeEmE10isScalableEv(ptr noundef nonnull align 8 dereferenceable(9) %0) #0 comdat align 2 {
  %2 = alloca ptr, align 8
  store ptr %0, ptr %2, align 8
  %3 = load ptr, ptr %2, align 8
  %4 = getelementptr inbounds nuw %"class.llvm::details::FixedOrScalableQuantity", ptr %3, i32 0, i32 1
  %5 = load i8, ptr %4, align 8
  %6 = trunc i8 %5 to i1
  ret i1 %6
}

; Function Attrs: mustprogress nounwind uwtable
define linkonce_odr hidden noundef i64 @_ZNK4llvm7details23FixedOrScalableQuantityINS_8TypeSizeEmE16getKnownMinValueEv(ptr noundef nonnull align 8 dereferenceable(9) %0) #0 comdat align 2 {
  %2 = alloca ptr, align 8
  store ptr %0, ptr %2, align 8
  %3 = load ptr, ptr %2, align 8
  %4 = getelementptr inbounds nuw %"class.llvm::details::FixedOrScalableQuantity", ptr %3, i32 0, i32 0
  %5 = load i64, ptr %4, align 8
  ret i64 %5
}

; Function Attrs: mustprogress nounwind uwtable
define linkonce_odr hidden { i64, i8 } @_ZNK4llvm10DataLayout22getTypeStoreSizeInBitsEPNS_4TypeE(ptr noundef nonnull align 8 dereferenceable(512) %0, ptr noundef %1) #0 comdat align 2 {
  %3 = alloca %"class.llvm::TypeSize", align 8
  %4 = alloca ptr, align 8
  %5 = alloca ptr, align 8
  %6 = alloca %"class.llvm::TypeSize", align 8
  %7 = alloca { i64, i8 }, align 8
  %8 = alloca i64, align 8
  store ptr %0, ptr %4, align 8
  store ptr %1, ptr %5, align 8
  %9 = load ptr, ptr %4, align 8
  %10 = load ptr, ptr %5, align 8
  %11 = call { i64, i8 } @_ZNK4llvm10DataLayout17getTypeSizeInBitsEPNS_4TypeE(ptr noundef nonnull align 8 dereferenceable(512) %9, ptr noundef %10)
  store { i64, i8 } %11, ptr %7, align 8
  call void @llvm.memcpy.p0.p0.i64(ptr align 8 %6, ptr align 8 %7, i64 9, i1 false)
  %12 = call noundef i64 @_ZNK4llvm7details23FixedOrScalableQuantityINS_8TypeSizeEmE16getKnownMinValueEv(ptr noundef nonnull align 8 dereferenceable(9) %6)
  %13 = call noundef i64 @_ZN4llvm15alignToPowerOf2ImimEET1_T_T0_(i64 noundef %12, i32 noundef 8)
  store i64 %13, ptr %8, align 8
  %14 = load i64, ptr %8, align 8
  %15 = call noundef zeroext i1 @_ZNK4llvm7details23FixedOrScalableQuantityINS_8TypeSizeEmE10isScalableEv(ptr noundef nonnull align 8 dereferenceable(9) %6)
  call void @_ZN4llvm8TypeSizeC2Emb(ptr noundef nonnull align 8 dereferenceable(9) %3, i64 noundef %14, i1 noundef zeroext %15)
  %16 = load { i64, i8 }, ptr %3, align 8
  ret { i64, i8 } %16
}

; Function Attrs: mustprogress nounwind uwtable
define linkonce_odr hidden void @_ZN5clang9CharUnitsC2El(ptr noundef nonnull align 8 dereferenceable(8) %0, i64 noundef %1) unnamed_addr #0 comdat align 2 {
  %3 = alloca ptr, align 8
  %4 = alloca i64, align 8
  store ptr %0, ptr %3, align 8
  store i64 %1, ptr %4, align 8
  %5 = load ptr, ptr %3, align 8
  %6 = getelementptr inbounds nuw %"class.clang::CharUnits", ptr %5, i32 0, i32 0
  %7 = load i64, ptr %4, align 8
  store i64 %7, ptr %6, align 8
  ret void
}

; Function Attrs: mustprogress nounwind uwtable
define linkonce_odr hidden { i64, i8 } @_ZN4llvm7alignToENS_8TypeSizeEm(i64 %0, i8 %1, i64 noundef %2) #0 comdat {
  %4 = alloca %"class.llvm::TypeSize", align 8
  %5 = alloca %"class.llvm::TypeSize", align 8
  %6 = alloca i64, align 8
  %7 = getelementptr inbounds nuw { i64, i8 }, ptr %5, i32 0, i32 0
  store i64 %0, ptr %7, align 8
  %8 = getelementptr inbounds nuw { i64, i8 }, ptr %5, i32 0, i32 1
  store i8 %1, ptr %8, align 8
  store i64 %2, ptr %6, align 8
  %9 = call noundef i64 @_ZNK4llvm7details23FixedOrScalableQuantityINS_8TypeSizeEmE16getKnownMinValueEv(ptr noundef nonnull align 8 dereferenceable(9) %5)
  %10 = load i64, ptr %6, align 8
  %11 = add i64 %9, %10
  %12 = sub i64 %11, 1
  %13 = load i64, ptr %6, align 8
  %14 = udiv i64 %12, %13
  %15 = load i64, ptr %6, align 8
  %16 = mul i64 %14, %15
  %17 = call noundef zeroext i1 @_ZNK4llvm7details23FixedOrScalableQuantityINS_8TypeSizeEmE10isScalableEv(ptr noundef nonnull align 8 dereferenceable(9) %5)
  call void @_ZN4llvm8TypeSizeC2Emb(ptr noundef nonnull align 8 dereferenceable(9) %4, i64 noundef %16, i1 noundef zeroext %17)
  %18 = load { i64, i8 }, ptr %4, align 8
  ret { i64, i8 } %18
}

; Function Attrs: mustprogress nounwind uwtable
define linkonce_odr hidden noundef i64 @_ZNK4llvm5Align5valueEv(ptr noundef nonnull align 1 dereferenceable(1) %0) #0 comdat align 2 {
  %2 = alloca ptr, align 8
  store ptr %0, ptr %2, align 8
  %3 = load ptr, ptr %2, align 8
  %4 = getelementptr inbounds nuw %"struct.llvm::Align", ptr %3, i32 0, i32 0
  %5 = load i8, ptr %4, align 1
  %6 = zext i8 %5 to i32
  %7 = zext i32 %6 to i64
  %8 = shl i64 1, %7
  ret i64 %8
}

; Function Attrs: mustprogress nounwind uwtable
define linkonce_odr hidden { i64, i8 } @_ZNK4llvm10DataLayout16getTypeStoreSizeEPNS_4TypeE(ptr noundef nonnull align 8 dereferenceable(512) %0, ptr noundef %1) #0 comdat align 2 {
  %3 = alloca %"class.llvm::TypeSize", align 8
  %4 = alloca ptr, align 8
  %5 = alloca ptr, align 8
  %6 = alloca %"class.llvm::TypeSize", align 8
  %7 = alloca { i64, i8 }, align 8
  store ptr %0, ptr %4, align 8
  store ptr %1, ptr %5, align 8
  %8 = load ptr, ptr %4, align 8
  %9 = load ptr, ptr %5, align 8
  %10 = call { i64, i8 } @_ZNK4llvm10DataLayout22getTypeStoreSizeInBitsEPNS_4TypeE(ptr noundef nonnull align 8 dereferenceable(512) %8, ptr noundef %9)
  store { i64, i8 } %10, ptr %7, align 8
  call void @llvm.memcpy.p0.p0.i64(ptr align 8 %6, ptr align 8 %7, i64 9, i1 false)
  %11 = call noundef i64 @_ZNK4llvm7details23FixedOrScalableQuantityINS_8TypeSizeEmE16getKnownMinValueEv(ptr noundef nonnull align 8 dereferenceable(9) %6)
  %12 = udiv i64 %11, 8
  %13 = call noundef zeroext i1 @_ZNK4llvm7details23FixedOrScalableQuantityINS_8TypeSizeEmE10isScalableEv(ptr noundef nonnull align 8 dereferenceable(9) %6)
  call void @_ZN4llvm8TypeSizeC2Emb(ptr noundef nonnull align 8 dereferenceable(9) %3, i64 noundef %12, i1 noundef zeroext %13)
  %14 = load { i64, i8 }, ptr %3, align 8
  ret { i64, i8 } %14
}

; Function Attrs: mustprogress nounwind uwtable
define linkonce_odr hidden noundef nonnull align 8 dereferenceable(512) ptr @_ZNK4llvm6Module13getDataLayoutEv(ptr noundef nonnull align 8 dereferenceable(857) %0) #0 comdat align 2 {
  %2 = alloca ptr, align 8
  store ptr %0, ptr %2, align 8
  %3 = load ptr, ptr %2, align 8
  %4 = getelementptr inbounds nuw %"class.llvm::Module", ptr %3, i32 0, i32 15
  ret ptr %4
}

; Function Attrs: mustprogress nounwind uwtable
define linkonce_odr hidden noundef zeroext i1 @_ZNK5clang9CharUnitsneERKS0_(ptr noundef nonnull align 8 dereferenceable(8) %0, ptr noundef nonnull align 8 dereferenceable(8) %1) #0 comdat align 2 {
  %3 = alloca ptr, align 8
  %4 = alloca ptr, align 8
  store ptr %0, ptr %3, align 8
  store ptr %1, ptr %4, align 8
  %5 = load ptr, ptr %3, align 8
  %6 = getelementptr inbounds nuw %"class.clang::CharUnits", ptr %5, i32 0, i32 0
  %7 = load i64, ptr %6, align 8
  %8 = load ptr, ptr %4, align 8
  %9 = getelementptr inbounds nuw %"class.clang::CharUnits", ptr %8, i32 0, i32 0
  %10 = load i64, ptr %9, align 8
  %11 = icmp ne i64 %7, %10
  ret i1 %11
}

; Function Attrs: mustprogress nounwind uwtable
define linkonce_odr hidden i64 @_ZN5clang9CharUnits12fromQuantityEl(i64 noundef %0) #0 comdat align 2 {
  %2 = alloca %"class.clang::CharUnits", align 8
  %3 = alloca i64, align 8
  store i64 %0, ptr %3, align 8
  %4 = load i64, ptr %3, align 8
  call void @_ZN5clang9CharUnitsC2El(ptr noundef nonnull align 8 dereferenceable(8) %2, i64 noundef %4)
  %5 = getelementptr inbounds nuw %"class.clang::CharUnits", ptr %2, i32 0, i32 0
  %6 = load i64, ptr %5, align 8
  ret i64 %6
}

; Function Attrs: mustprogress nounwind uwtable
define linkonce_odr hidden { i64, i8 } @_ZNK4llvm10DataLayout16getTypeAllocSizeEPNS_4TypeE(ptr noundef nonnull align 8 dereferenceable(512) %0, ptr noundef %1) #0 comdat align 2 {
  %3 = alloca %"class.llvm::TypeSize", align 8
  %4 = alloca ptr, align 8
  %5 = alloca ptr, align 8
  %6 = alloca %"class.llvm::TypeSize", align 8
  %7 = alloca { i64, i8 }, align 8
  %8 = alloca %"struct.llvm::Align", align 1
  %9 = alloca { i64, i8 }, align 8
  store ptr %0, ptr %4, align 8
  store ptr %1, ptr %5, align 8
  %10 = load ptr, ptr %4, align 8
  %11 = load ptr, ptr %5, align 8
  %12 = call { i64, i8 } @_ZNK4llvm10DataLayout16getTypeStoreSizeEPNS_4TypeE(ptr noundef nonnull align 8 dereferenceable(512) %10, ptr noundef %11)
  store { i64, i8 } %12, ptr %7, align 8
  call void @llvm.memcpy.p0.p0.i64(ptr align 8 %6, ptr align 8 %7, i64 9, i1 false)
  %13 = load ptr, ptr %5, align 8
  %14 = call i8 @_ZNK4llvm10DataLayout15getABITypeAlignEPNS_4TypeE(ptr noundef nonnull align 8 dereferenceable(512) %10, ptr noundef %13)
  %15 = getelementptr inbounds nuw %"struct.llvm::Align", ptr %8, i32 0, i32 0
  store i8 %14, ptr %15, align 1
  %16 = call noundef i64 @_ZNK4llvm5Align5valueEv(ptr noundef nonnull align 1 dereferenceable(1) %8)
  %17 = getelementptr inbounds nuw { i64, i8 }, ptr %6, i32 0, i32 0
  %18 = load i64, ptr %17, align 8
  %19 = getelementptr inbounds nuw { i64, i8 }, ptr %6, i32 0, i32 1
  %20 = load i8, ptr %19, align 8
  %21 = call { i64, i8 } @_ZN4llvm7alignToENS_8TypeSizeEm(i64 %18, i8 %20, i64 noundef %16)
  store { i64, i8 } %21, ptr %9, align 8
  call void @llvm.memcpy.p0.p0.i64(ptr align 8 %3, ptr align 8 %9, i64 9, i1 false)
  %22 = load { i64, i8 }, ptr %3, align 8
  ret { i64, i8 } %22
}

; Function Attrs: mustprogress nounwind uwtable
define linkonce_odr hidden noundef nonnull align 8 dereferenceable(512) ptr @_ZNK5clang7CodeGen12CodeGenTypes13getDataLayoutEv(ptr noundef nonnull align 8 dereferenceable(240) %0) #0 comdat align 2 {
  %2 = alloca ptr, align 8
  store ptr %0, ptr %2, align 8
  %3 = load ptr, ptr %2, align 8
  %4 = getelementptr inbounds nuw %"class.clang::CodeGen::CodeGenTypes", ptr %3, i32 0, i32 2
  %5 = load ptr, ptr %4, align 8
  %6 = call noundef nonnull align 8 dereferenceable(512) ptr @_ZNK4llvm6Module13getDataLayoutEv(ptr noundef nonnull align 8 dereferenceable(857) %5)
  ret ptr %6
}

; Function Attrs: mustprogress nounwind uwtable
define dso_local noundef zeroext i1 @_ZN5clang7CodeGen12CodeGenTypes30typeRequiresSplitIntoByteArrayENS_8QualTypeEPN4llvm4TypeE(ptr noundef nonnull align 8 dereferenceable(240) %0, i64 %1, ptr noundef %2) #0 align 2 {
  %4 = alloca %"class.clang::QualType", align 8
  %5 = alloca ptr, align 8
  %6 = alloca ptr, align 8
  %7 = alloca %"class.clang::QualType", align 8
  %8 = alloca %"class.clang::CharUnits", align 8
  %9 = alloca %"class.clang::QualType", align 8
  %10 = alloca %"class.clang::CharUnits", align 8
  %11 = alloca %"class.llvm::TypeSize", align 8
  %12 = alloca { i64, i8 }, align 8
  %13 = getelementptr inbounds nuw %"class.clang::QualType", ptr %4, i32 0, i32 0
  %14 = getelementptr inbounds nuw %"class.llvm::PointerIntPair.272", ptr %13, i32 0, i32 0
  %15 = getelementptr inbounds nuw %"struct.llvm::detail::PunnedPointer.273", ptr %14, i32 0, i32 0
  store i64 %1, ptr %15, align 8
  store ptr %0, ptr %5, align 8
  store ptr %2, ptr %6, align 8
  %16 = load ptr, ptr %5, align 8
  %17 = load ptr, ptr %6, align 8
  %18 = icmp ne ptr %17, null
  br i1 %18, label %25, label %19

19:                                               ; preds = %3
  call void @llvm.memcpy.p0.p0.i64(ptr align 8 %7, ptr align 8 %4, i64 8, i1 false)
  %20 = getelementptr inbounds nuw %"class.clang::QualType", ptr %7, i32 0, i32 0
  %21 = getelementptr inbounds nuw %"class.llvm::PointerIntPair.272", ptr %20, i32 0, i32 0
  %22 = getelementptr inbounds nuw %"struct.llvm::detail::PunnedPointer.273", ptr %21, i32 0, i32 0
  %23 = load i64, ptr %22, align 8
  %24 = call noundef ptr @_ZN5clang7CodeGen12CodeGenTypes11ConvertTypeENS_8QualTypeE(ptr noundef nonnull align 8 dereferenceable(240) %16, i64 %23)
  store ptr %24, ptr %6, align 8
  br label %25

25:                                               ; preds = %19, %3
  %26 = getelementptr inbounds nuw %"class.clang::CodeGen::CodeGenTypes", ptr %16, i32 0, i32 1
  %27 = load ptr, ptr %26, align 8
  call void @llvm.memcpy.p0.p0.i64(ptr align 8 %9, ptr align 8 %4, i64 8, i1 false)
  %28 = getelementptr inbounds nuw %"class.clang::QualType", ptr %9, i32 0, i32 0
  %29 = getelementptr inbounds nuw %"class.llvm::PointerIntPair.272", ptr %28, i32 0, i32 0
  %30 = getelementptr inbounds nuw %"struct.llvm::detail::PunnedPointer.273", ptr %29, i32 0, i32 0
  %31 = load i64, ptr %30, align 8
  %32 = call i64 @_ZNK5clang10ASTContext18getTypeSizeInCharsENS_8QualTypeE(ptr noundef nonnull align 8 dereferenceable(23096) %27, i64 %31)
  %33 = getelementptr inbounds nuw %"class.clang::CharUnits", ptr %8, i32 0, i32 0
  store i64 %32, ptr %33, align 8
  %34 = call noundef nonnull align 8 dereferenceable(512) ptr @_ZNK5clang7CodeGen12CodeGenTypes13getDataLayoutEv(ptr noundef nonnull align 8 dereferenceable(240) %16)
  %35 = load ptr, ptr %6, align 8
  %36 = call { i64, i8 } @_ZNK4llvm10DataLayout16getTypeAllocSizeEPNS_4TypeE(ptr noundef nonnull align 8 dereferenceable(512) %34, ptr noundef %35)
  store { i64, i8 } %36, ptr %12, align 8
  call void @llvm.memcpy.p0.p0.i64(ptr align 8 %11, ptr align 8 %12, i64 9, i1 false)
  %37 = call noundef i64 @_ZNK4llvm8TypeSizecvmEv(ptr noundef nonnull align 8 dereferenceable(9) %11)
  %38 = call i64 @_ZN5clang9CharUnits12fromQuantityEl(i64 noundef %37)
  %39 = getelementptr inbounds nuw %"class.clang::CharUnits", ptr %10, i32 0, i32 0
  store i64 %38, ptr %39, align 8
  %40 = call noundef zeroext i1 @_ZNK5clang9CharUnitsneERKS0_(ptr noundef nonnull align 8 dereferenceable(8) %8, ptr noundef nonnull align 8 dereferenceable(8) %10)
  ret i1 %40
}