; Function Attrs: mustprogress nounwind uwtable
define dso_local noundef zeroext i1 @_ZN5clang7CodeGen12CodeGenTypes30typeRequiresSplitIntoByteArrayENS_8QualTypeEPN4llvm4TypeE(ptr noundef nonnull align 8 dereferenceable(240) %0, i64 %1, ptr noundef %2) local_unnamed_addr #0 align 2 {
  %4 = alloca %"class.llvm::TypeSize", align 8
  %.not = icmp eq ptr %2, null
  br i1 %.not, label %5, label %7

5:                                                ; preds = %3
  %6 = tail call noundef ptr @_ZN5clang7CodeGen12CodeGenTypes11ConvertTypeENS_8QualTypeE(ptr noundef nonnull align 8 dereferenceable(240) %0, i64 %1)
  br label %7

7:                                                ; preds = %5, %3
  %.0 = phi ptr [ %2, %3 ], [ %6, %5 ]
  %8 = getelementptr inbounds nuw i8, ptr %0, i64 8
  %9 = load ptr, ptr %8, align 8
  %10 = tail call i64 @_ZNK5clang10ASTContext18getTypeSizeInCharsENS_8QualTypeE(ptr noundef nonnull align 8 dereferenceable(23096) %9, i64 %1) #15
  %11 = getelementptr inbounds nuw i8, ptr %0, i64 16
  %12 = load ptr, ptr %11, align 8
  %13 = getelementptr inbounds nuw i8, ptr %12, i64 288
  %14 = tail call { i64, i8 } @_ZNK4llvm10DataLayout17getTypeSizeInBitsEPNS_4TypeE(ptr noundef nonnull align 8 dereferenceable(512) %13, ptr noundef %.0)
  %.fca.0.extract.i13.i = extractvalue { i64, i8 } %14, 0
  %.fca.1.extract.i14.i = extractvalue { i64, i8 } %14, 1
  %15 = add i64 %.fca.0.extract.i13.i, 7
  %16 = and i8 %.fca.1.extract.i14.i, 1
  %17 = lshr i64 %15, 3
  %18 = tail call i8 @_ZNK4llvm10DataLayout15getABITypeAlignEPNS_4TypeE(ptr noundef nonnull align 8 dereferenceable(512) %13, ptr noundef %.0) #15
  %19 = zext nneg i8 %18 to i64
  %20 = shl nuw i64 1, %19
  %21 = add nsw i64 %17, -1
  %22 = add i64 %21, %20
  %.not.i = sub i64 0, %20
  %23 = and i64 %22, %.not.i
  store i64 %23, ptr %4, align 8
  %.sroa.2.0..sroa_idx = getelementptr inbounds i8, ptr %4, i64 8
  store i8 %16, ptr %.sroa.2.0..sroa_idx, align 8
  %24 = call noundef i64 @_ZNK4llvm8TypeSizecvmEv(ptr noundef nonnull align 8 dereferenceable(9) %4) #15
  %25 = icmp ne i64 %10, %24
  ret i1 %25
}